target datalayout = "e-m:e-p270:32:32-p271:32:32-p272:64:64-i64:64-i128:128-f80:128-n8:16:32:64-S128"
target triple = "x86_64-pc-linux-gnu"

%struct.uv_fs_event_s = type { ptr, ptr, i32, ptr, [2 x ptr], %union.anon.7, ptr, i32, ptr, ptr, [2 x ptr], i32 }
%union.anon.7 = type { [4 x ptr] }

; Function Attrs: nounwind uwtable
define dso_local i32 @uv_fs_event_getpath(ptr noundef %0, ptr noundef %1, ptr noundef %2) #0 {
  %4 = alloca i32, align 4
  %5 = alloca ptr, align 8
  %6 = alloca ptr, align 8
  %7 = alloca ptr, align 8
  %8 = alloca i64, align 8
  %9 = alloca i32, align 4
  store ptr %0, ptr %5, align 8, !tbaa !86
  store ptr %1, ptr %6, align 8, !tbaa !4
  store ptr %2, ptr %7, align 8, !tbaa !88
  call void @llvm.lifetime.start.p0(i64 8, ptr %8) #13
  %10 = load ptr, ptr %5, align 8, !tbaa !86
  %11 = getelementptr inbounds nuw %struct.uv_fs_event_s, ptr %10, i32 0, i32 7
  %12 = load i32, ptr %11, align 8, !tbaa !90
  %13 = and i32 %12, 4
  %14 = icmp ne i32 %13, 0
  br i1 %14, label %17, label %15

15:                                               ; preds = %3
  %16 = load ptr, ptr %7, align 8, !tbaa !88
  store i64 0, ptr %16, align 8, !tbaa !9
  store i32 -22, ptr %4, align 4
  store i32 1, ptr %9, align 4
  br label %41

17:                                               ; preds = %3
  %18 = load ptr, ptr %5, align 8, !tbaa !86
  %19 = getelementptr inbounds nuw %struct.uv_fs_event_s, ptr %18, i32 0, i32 8
  %20 = load ptr, ptr %19, align 8, !tbaa !92
  %21 = call i64 @strlen(ptr noundef %20) #14
  store i64 %21, ptr %8, align 8, !tbaa !9
  %22 = load i64, ptr %8, align 8, !tbaa !9
  %23 = load ptr, ptr %7, align 8, !tbaa !88
  %24 = load i64, ptr %23, align 8, !tbaa !9
  %25 = icmp uge i64 %22, %24
  br i1 %25, label %26, label %30

26:                                               ; preds = %17
  %27 = load i64, ptr %8, align 8, !tbaa !9
  %28 = add i64 %27, 1
  %29 = load ptr, ptr %7, align 8, !tbaa !88
  store i64 %28, ptr %29, align 8, !tbaa !9
  store i32 -105, ptr %4, align 4
  store i32 1, ptr %9, align 4
  br label %41

30:                                               ; preds = %17
  %31 = load ptr, ptr %6, align 8, !tbaa !4
  %32 = load ptr, ptr %5, align 8, !tbaa !86
  %33 = getelementptr inbounds nuw %struct.uv_fs_event_s, ptr %32, i32 0, i32 8
  %34 = load ptr, ptr %33, align 8, !tbaa !92
  %35 = load i64, ptr %8, align 8, !tbaa !9
  call void @llvm.memcpy.p0.p0.i64(ptr align 1 %31, ptr align 1 %34, i64 %35, i1 false)
  %36 = load i64, ptr %8, align 8, !tbaa !9
  %37 = load ptr, ptr %7, align 8, !tbaa !88
  store i64 %36, ptr %37, align 8, !tbaa !9
  %38 = load ptr, ptr %6, align 8, !tbaa !4
  %39 = load i64, ptr %8, align 8, !tbaa !9
  %40 = getelementptr inbounds nuw i8, ptr %38, i64 %39
  store i8 0, ptr %40, align 1, !tbaa !13
  store i32 0, ptr %4, align 4
  store i32 1, ptr %9, align 4
  br label %41

41:                                               ; preds = %30, %26, %15
  call void @llvm.lifetime.end.p0(i64 8, ptr %8) #13
  %42 = load i32, ptr %4, align 4
  ret i32 %42
}