; Function Attrs: mustprogress nofree nounwind willreturn memory(readwrite, inaccessiblemem: none) uwtable
define dso_local range(i32 -105, 1) i32 @uv_fs_event_getpath(ptr noundef readonly captures(none) %0, ptr noundef writeonly captures(none) %1, ptr noundef captures(none) %2) local_unnamed_addr #16 {
  %4 = getelementptr inbounds nuw i8, ptr %0, i64 88
  %5 = load i32, ptr %4, align 8, !tbaa !62
  %6 = and i32 %5, 4
  %.not = icmp eq i32 %6, 0
  br i1 %.not, label %7, label %8

7:                                                ; preds = %3
  store i64 0, ptr %2, align 8, !tbaa !64
  br label %17

8:                                                ; preds = %3
  %9 = getelementptr inbounds nuw i8, ptr %0, i64 96
  %10 = load ptr, ptr %9, align 8, !tbaa !65
  %11 = tail call i64 @strlen(ptr noundef nonnull dereferenceable(1) %10) #25
  %12 = load i64, ptr %2, align 8, !tbaa !64
  %.not15 = icmp ult i64 %11, %12
  br i1 %.not15, label %15, label %13

13:                                               ; preds = %8
  %14 = add i64 %11, 1
  store i64 %14, ptr %2, align 8, !tbaa !64
  br label %17

15:                                               ; preds = %8
  tail call void @llvm.memcpy.p0.p0.i64(ptr align 1 %1, ptr nonnull align 1 %10, i64 %11, i1 false)
  store i64 %11, ptr %2, align 8, !tbaa !64
  %16 = getelementptr inbounds nuw i8, ptr %1, i64 %11
  store i8 0, ptr %16, align 1, !tbaa !9
  br label %17

17:                                               ; preds = %15, %13, %7
  %.0 = phi i32 [ -105, %13 ], [ 0, %15 ], [ -22, %7 ]
  ret i32 %.0
}